target datalayout = "e-m:e-p270:32:32-p271:32:32-p272:64:64-i64:64-i128:128-f80:128-n8:16:32:64-S128"
target triple = "x86_64-pc-linux-gnu"

%"class.zmq::thread_ctx_t" = type { %"class.zmq::mutex_t", i32, i32, %"class.std::set", %"class.std::__cxx11::basic_string" }
%"class.std::set" = type { %"class.std::_Rb_tree" }
%"class.std::_Rb_tree" = type { %"struct.std::_Rb_tree<int, int, std::_Identity<int>, std::less<int>>::_Rb_tree_impl" }
%"struct.std::_Rb_tree<int, int, std::_Identity<int>, std::less<int>>::_Rb_tree_impl" = type { [8 x i8], %"struct.std::_Rb_tree_header" }
%"struct.std::_Rb_tree_header" = type { %"struct.std::_Rb_tree_node_base", i64 }
%"struct.std::_Rb_tree_node_base" = type { i32, ptr, ptr, ptr }
%"class.std::__cxx11::basic_string" = type { %"struct.std::__cxx11::basic_string<char>::_Alloc_hider", i64, %union.anon }
%"struct.std::__cxx11::basic_string<char>::_Alloc_hider" = type { ptr }
%union.anon = type { i64, [8 x i8] }
%"class.zmq::mutex_t" = type <{ %union.pthread_mutex_t, %union.pthread_mutexattr_t, [4 x i8] }>
%union.pthread_mutex_t = type { %struct.__pthread_mutex_s }
%struct.__pthread_mutex_s = type { i32, i32, i32, i32, i32, i16, i16, %struct.__pthread_internal_list }
%struct.__pthread_internal_list = type { ptr, ptr }
%union.pthread_mutexattr_t = type { i32 }
%"struct.zmq::scoped_lock_t" = type { ptr }

@stderr = external global ptr, align 8
@.str.4 = private unnamed_addr constant [12 x i8] c"%s (%s:%d)\0A\00", align 1
@.str.10 = private unnamed_addr constant [105 x i8] c"generated/home/dtcxzyw/WorkSpace/Projects/compilers/llvm-opt-benchmark/bench/libzmq/libzmq/src/mutex.hpp\00", align 1

; Function Attrs: mustprogress nounwind uwtable
define available_externally noundef ptr @_ZNKSt7__cxx1112basic_stringIcSt11char_traitsIcESaIcEE7_M_dataEv(ptr noundef nonnull align 8 dereferenceable(32) %0) #1 align 2 {
  %2 = alloca ptr, align 8
  store ptr %0, ptr %2, align 8, !tbaa !136
  %3 = load ptr, ptr %2, align 8
  %4 = getelementptr inbounds nuw %"class.std::__cxx11::basic_string", ptr %3, i32 0, i32 0
  %5 = getelementptr inbounds nuw %"struct.std::__cxx11::basic_string<char>::_Alloc_hider", ptr %4, i32 0, i32 0
  %6 = load ptr, ptr %5, align 8, !tbaa !354
  ret ptr %6
}

; Function Attrs: inlinehint mustprogress uwtable
define linkonce_odr void @_ZN3zmq7mutex_t6unlockEv(ptr noundef nonnull align 8 dereferenceable(44) %0) #2 comdat align 2 {
  %2 = alloca ptr, align 8
  %3 = alloca i32, align 4
  %4 = alloca ptr, align 8
  store ptr %0, ptr %2, align 8, !tbaa !90
  %5 = load ptr, ptr %2, align 8
  call void @llvm.lifetime.start.p0(i64 4, ptr %3) #21
  %6 = getelementptr inbounds nuw %"class.zmq::mutex_t", ptr %5, i32 0, i32 0
  %7 = call i32 @pthread_mutex_unlock(ptr noundef %6) #21
  store i32 %7, ptr %3, align 4, !tbaa !92
  br label %8

8:                                                ; preds = %1
  %9 = load i32, ptr %3, align 4, !tbaa !92
  %10 = sext i32 %9 to i64
  %11 = call i64 @llvm.expect.i64(i64 %10, i64 0)
  %12 = icmp ne i64 %11, 0
  br i1 %12, label %13, label %22

13:                                               ; preds = %8
  call void @llvm.lifetime.start.p0(i64 8, ptr %4) #21
  %14 = load i32, ptr %3, align 4, !tbaa !92
  %15 = call ptr @strerror(i32 noundef %14) #21
  store ptr %15, ptr %4, align 8, !tbaa !93
  %16 = load ptr, ptr @stderr, align 8, !tbaa !94
  %17 = load ptr, ptr %4, align 8, !tbaa !93
  %18 = call i32 (ptr, ptr, ...) @fprintf(ptr noundef %16, ptr noundef @.str.4, ptr noundef %17, ptr noundef @.str.10, i32 noundef 125) #21
  %19 = load ptr, ptr @stderr, align 8, !tbaa !94
  %20 = call i32 @fflush(ptr noundef %19)
  %21 = load ptr, ptr %4, align 8, !tbaa !93
  call void @_ZN3zmq9zmq_abortEPKc(ptr noundef %21)
  call void @llvm.lifetime.end.p0(i64 8, ptr %4) #21
  br label %22

22:                                               ; preds = %13, %8
  br label %23

23:                                               ; preds = %22
  br label %24

24:                                               ; preds = %23
  call void @llvm.lifetime.end.p0(i64 4, ptr %3) #21
  ret void
}

; Function Attrs: inlinehint mustprogress uwtable
define linkonce_odr void @_ZN3zmq7mutex_t4lockEv(ptr noundef nonnull align 8 dereferenceable(44) %0) #2 comdat align 2 {
  %2 = alloca ptr, align 8
  %3 = alloca i32, align 4
  %4 = alloca ptr, align 8
  store ptr %0, ptr %2, align 8, !tbaa !90
  %5 = load ptr, ptr %2, align 8
  call void @llvm.lifetime.start.p0(i64 4, ptr %3) #21
  %6 = getelementptr inbounds nuw %"class.zmq::mutex_t", ptr %5, i32 0, i32 0
  %7 = call i32 @pthread_mutex_lock(ptr noundef %6) #21
  store i32 %7, ptr %3, align 4, !tbaa !92
  br label %8

8:                                                ; preds = %1
  %9 = load i32, ptr %3, align 4, !tbaa !92
  %10 = sext i32 %9 to i64
  %11 = call i64 @llvm.expect.i64(i64 %10, i64 0)
  %12 = icmp ne i64 %11, 0
  br i1 %12, label %13, label %22

13:                                               ; preds = %8
  call void @llvm.lifetime.start.p0(i64 8, ptr %4) #21
  %14 = load i32, ptr %3, align 4, !tbaa !92
  %15 = call ptr @strerror(i32 noundef %14) #21
  store ptr %15, ptr %4, align 8, !tbaa !93
  %16 = load ptr, ptr @stderr, align 8, !tbaa !94
  %17 = load ptr, ptr %4, align 8, !tbaa !93
  %18 = call i32 (ptr, ptr, ...) @fprintf(ptr noundef %16, ptr noundef @.str.4, ptr noundef %17, ptr noundef @.str.10, i32 noundef 109) #21
  %19 = load ptr, ptr @stderr, align 8, !tbaa !94
  %20 = call i32 @fflush(ptr noundef %19)
  %21 = load ptr, ptr %4, align 8, !tbaa !93
  call void @_ZN3zmq9zmq_abortEPKc(ptr noundef %21)
  call void @llvm.lifetime.end.p0(i64 8, ptr %4) #21
  br label %22

22:                                               ; preds = %13, %8
  br label %23

23:                                               ; preds = %22
  br label %24

24:                                               ; preds = %23
  call void @llvm.lifetime.end.p0(i64 4, ptr %3) #21
  ret void
}

; Function Attrs: mustprogress nounwind uwtable
define available_externally noundef ptr @_ZNKSt7__cxx1112basic_stringIcSt11char_traitsIcESaIcEE4dataEv(ptr noundef nonnull align 8 dereferenceable(32) %0) #1 align 2 {
  %2 = alloca ptr, align 8
  store ptr %0, ptr %2, align 8, !tbaa !136
  %3 = load ptr, ptr %2, align 8
  %4 = call noundef ptr @_ZNKSt7__cxx1112basic_stringIcSt11char_traitsIcESaIcEE7_M_dataEv(ptr noundef nonnull align 8 dereferenceable(32) %3)
  ret ptr %4
}

; Function Attrs: mustprogress nounwind uwtable
define available_externally noundef i64 @_ZNKSt7__cxx1112basic_stringIcSt11char_traitsIcESaIcEE4sizeEv(ptr noundef nonnull align 8 dereferenceable(32) %0) #1 align 2 {
  %2 = alloca ptr, align 8
  store ptr %0, ptr %2, align 8, !tbaa !136
  %3 = load ptr, ptr %2, align 8
  %4 = getelementptr inbounds nuw %"class.std::__cxx11::basic_string", ptr %3, i32 0, i32 1
  %5 = load i64, ptr %4, align 8, !tbaa !165
  ret i64 %5
}

; Function Attrs: inlinehint mustprogress nounwind willreturn memory(read) uwtable
define available_externally i32 @atoi(ptr noundef nonnull %0) #15 {
  %2 = alloca ptr, align 8
  store ptr %0, ptr %2, align 8, !tbaa !93
  %3 = load ptr, ptr %2, align 8, !tbaa !93
  %4 = call i64 @strtol(ptr noundef %3, ptr noundef null, i32 noundef 10) #21
  %5 = trunc i64 %4 to i32
  ret i32 %5
}

; Function Attrs: mustprogress nounwind uwtable
define available_externally noundef ptr @_ZNKSt7__cxx1112basic_stringIcSt11char_traitsIcESaIcEE5c_strEv(ptr noundef nonnull align 8 dereferenceable(32) %0) #1 align 2 {
  %2 = alloca ptr, align 8
  store ptr %0, ptr %2, align 8, !tbaa !136
  %3 = load ptr, ptr %2, align 8
  %4 = call noundef ptr @_ZNKSt7__cxx1112basic_stringIcSt11char_traitsIcESaIcEE7_M_dataEv(ptr noundef nonnull align 8 dereferenceable(32) %3)
  ret ptr %4
}

; Function Attrs: mustprogress nounwind uwtable
define linkonce_odr void @_ZN3zmq13scoped_lock_tD2Ev(ptr noundef nonnull align 8 dereferenceable(8) %0) unnamed_addr #1 comdat align 2 personality ptr @__gxx_personality_v0 {
  %2 = alloca ptr, align 8
  store ptr %0, ptr %2, align 8, !tbaa !141
  %3 = load ptr, ptr %2, align 8
  %4 = getelementptr inbounds nuw %"struct.zmq::scoped_lock_t", ptr %3, i32 0, i32 0
  %5 = load ptr, ptr %4, align 8, !tbaa !143
  invoke void @_ZN3zmq7mutex_t6unlockEv(ptr noundef nonnull align 8 dereferenceable(44) %5)
          to label %6 unwind label %7

6:                                                ; preds = %1
  ret void

7:                                                ; preds = %1
  %8 = landingpad { ptr, i32 }
          catch ptr null
  %9 = extractvalue { ptr, i32 } %8, 0
  call void @__clang_call_terminate(ptr %9) #22
  unreachable
}

; Function Attrs: mustprogress uwtable
define linkonce_odr void @_ZN3zmq13scoped_lock_tC2ERNS_7mutex_tE(ptr noundef nonnull align 8 dereferenceable(8) %0, ptr noundef nonnull align 8 dereferenceable(44) %1) unnamed_addr #0 comdat align 2 {
  %3 = alloca ptr, align 8
  %4 = alloca ptr, align 8
  store ptr %0, ptr %3, align 8, !tbaa !141
  store ptr %1, ptr %4, align 8, !tbaa !90
  %5 = load ptr, ptr %3, align 8
  %6 = getelementptr inbounds nuw %"struct.zmq::scoped_lock_t", ptr %5, i32 0, i32 0
  %7 = load ptr, ptr %4, align 8, !tbaa !90
  store ptr %7, ptr %6, align 8, !tbaa !90
  %8 = getelementptr inbounds nuw %"struct.zmq::scoped_lock_t", ptr %5, i32 0, i32 0
  %9 = load ptr, ptr %8, align 8, !tbaa !143
  call void @_ZN3zmq7mutex_t4lockEv(ptr noundef nonnull align 8 dereferenceable(44) %9)
  ret void
}

; Function Attrs: mustprogress uwtable
define noundef i32 @_ZN3zmq12thread_ctx_t3getEiPvPKm(ptr noundef nonnull align 8 dereferenceable(136) %0, i32 noundef %1, ptr noundef %2, ptr noundef %3) #0 align 2 {
  %5 = alloca i32, align 4
  %6 = alloca ptr, align 8
  %7 = alloca i32, align 4
  %8 = alloca ptr, align 8
  %9 = alloca ptr, align 8
  %10 = alloca i8, align 1
  %11 = alloca ptr, align 8
  %12 = alloca %"struct.zmq::scoped_lock_t", align 8
  %13 = alloca i32, align 4
  %14 = alloca %"struct.zmq::scoped_lock_t", align 8
  %15 = alloca %"struct.zmq::scoped_lock_t", align 8
  store ptr %0, ptr %6, align 8, !tbaa !82
  store i32 %1, ptr %7, align 4, !tbaa !92
  store ptr %2, ptr %8, align 8, !tbaa !145
  store ptr %3, ptr %9, align 8, !tbaa !146
  %16 = load ptr, ptr %6, align 8
  call void @llvm.lifetime.start.p0(i64 1, ptr %10) #21
  %17 = load ptr, ptr %9, align 8, !tbaa !146
  %18 = load i64, ptr %17, align 8, !tbaa !110
  %19 = icmp eq i64 %18, 4
  %20 = zext i1 %19 to i8
  store i8 %20, ptr %10, align 1, !tbaa !118
  call void @llvm.lifetime.start.p0(i64 8, ptr %11) #21
  %21 = load ptr, ptr %8, align 8, !tbaa !145
  store ptr %21, ptr %11, align 8, !tbaa !148
  %22 = load i32, ptr %7, align 4, !tbaa !92
  switch i32 %22, label %56 [
    i32 4, label %23
    i32 9, label %32
  ]

23:                                               ; preds = %4
  %24 = load i8, ptr %10, align 1, !tbaa !118, !range !116, !noundef !117
  %25 = trunc i8 %24 to i1
  br i1 %25, label %26, label %31

26:                                               ; preds = %23
  call void @llvm.lifetime.start.p0(i64 8, ptr %12) #21
  %27 = getelementptr inbounds nuw %"class.zmq::thread_ctx_t", ptr %16, i32 0, i32 0
  call void @_ZN3zmq13scoped_lock_tC2ERNS_7mutex_tE(ptr noundef nonnull align 8 dereferenceable(8) %12, ptr noundef nonnull align 8 dereferenceable(44) %27)
  %28 = getelementptr inbounds nuw %"class.zmq::thread_ctx_t", ptr %16, i32 0, i32 2
  %29 = load i32, ptr %28, align 4, !tbaa !85
  %30 = load ptr, ptr %11, align 8, !tbaa !148
  store i32 %29, ptr %30, align 4, !tbaa !92
  store i32 0, ptr %5, align 4
  store i32 1, ptr %13, align 4
  call void @_ZN3zmq13scoped_lock_tD2Ev(ptr noundef nonnull align 8 dereferenceable(8) %12) #21
  call void @llvm.lifetime.end.p0(i64 8, ptr %12) #21
  br label %58

31:                                               ; preds = %23
  br label %56

32:                                               ; preds = %4
  %33 = load i8, ptr %10, align 1, !tbaa !118, !range !116, !noundef !117
  %34 = trunc i8 %33 to i1
  br i1 %34, label %35, label %41

35:                                               ; preds = %32
  call void @llvm.lifetime.start.p0(i64 8, ptr %14) #21
  %36 = getelementptr inbounds nuw %"class.zmq::thread_ctx_t", ptr %16, i32 0, i32 0
  call void @_ZN3zmq13scoped_lock_tC2ERNS_7mutex_tE(ptr noundef nonnull align 8 dereferenceable(8) %14, ptr noundef nonnull align 8 dereferenceable(44) %36)
  %37 = getelementptr inbounds nuw %"class.zmq::thread_ctx_t", ptr %16, i32 0, i32 4
  %38 = call noundef ptr @_ZNKSt7__cxx1112basic_stringIcSt11char_traitsIcESaIcEE5c_strEv(ptr noundef nonnull align 8 dereferenceable(32) %37) #21
  %39 = call i32 @atoi(ptr noundef %38) #25
  %40 = load ptr, ptr %11, align 8, !tbaa !148
  store i32 %39, ptr %40, align 4, !tbaa !92
  store i32 0, ptr %5, align 4
  store i32 1, ptr %13, align 4
  call void @_ZN3zmq13scoped_lock_tD2Ev(ptr noundef nonnull align 8 dereferenceable(8) %14) #21
  call void @llvm.lifetime.end.p0(i64 8, ptr %14) #21
  br label %58

41:                                               ; preds = %32
  %42 = load ptr, ptr %9, align 8, !tbaa !146
  %43 = load i64, ptr %42, align 8, !tbaa !110
  %44 = getelementptr inbounds nuw %"class.zmq::thread_ctx_t", ptr %16, i32 0, i32 4
  %45 = call noundef i64 @_ZNKSt7__cxx1112basic_stringIcSt11char_traitsIcESaIcEE4sizeEv(ptr noundef nonnull align 8 dereferenceable(32) %44) #21
  %46 = icmp uge i64 %43, %45
  br i1 %46, label %47, label %54

47:                                               ; preds = %41
  call void @llvm.lifetime.start.p0(i64 8, ptr %15) #21
  %48 = getelementptr inbounds nuw %"class.zmq::thread_ctx_t", ptr %16, i32 0, i32 0
  call void @_ZN3zmq13scoped_lock_tC2ERNS_7mutex_tE(ptr noundef nonnull align 8 dereferenceable(8) %15, ptr noundef nonnull align 8 dereferenceable(44) %48)
  %49 = load ptr, ptr %8, align 8, !tbaa !145
  %50 = getelementptr inbounds nuw %"class.zmq::thread_ctx_t", ptr %16, i32 0, i32 4
  %51 = call noundef ptr @_ZNKSt7__cxx1112basic_stringIcSt11char_traitsIcESaIcEE4dataEv(ptr noundef nonnull align 8 dereferenceable(32) %50) #21
  %52 = getelementptr inbounds nuw %"class.zmq::thread_ctx_t", ptr %16, i32 0, i32 4
  %53 = call noundef i64 @_ZNKSt7__cxx1112basic_stringIcSt11char_traitsIcESaIcEE4sizeEv(ptr noundef nonnull align 8 dereferenceable(32) %52) #21
  call void @llvm.memcpy.p0.p0.i64(ptr align 1 %49, ptr align 1 %51, i64 %53, i1 false)
  store i32 0, ptr %5, align 4
  store i32 1, ptr %13, align 4
  call void @_ZN3zmq13scoped_lock_tD2Ev(ptr noundef nonnull align 8 dereferenceable(8) %15) #21
  call void @llvm.lifetime.end.p0(i64 8, ptr %15) #21
  br label %58

54:                                               ; preds = %41
  br label %55

55:                                               ; preds = %54
  br label %56

56:                                               ; preds = %4, %55, %31
  %57 = call ptr @__errno_location() #24
  store i32 22, ptr %57, align 4, !tbaa !92
  store i32 -1, ptr %5, align 4
  store i32 1, ptr %13, align 4
  br label %58

58:                                               ; preds = %56, %47, %35, %26
  call void @llvm.lifetime.end.p0(i64 8, ptr %11) #21
  call void @llvm.lifetime.end.p0(i64 1, ptr %10) #21
  %59 = load i32, ptr %5, align 4
  ret i32 %59
}