; Function Attrs: mustprogress uwtable
define noundef range(i32 -1, 1) i32 @_ZN3zmq12thread_ctx_t3getEiPvPKm(ptr noundef nonnull align 8 dereferenceable(136) %0, i32 noundef %1, ptr noundef writeonly captures(none) %2, ptr noundef readonly captures(none) %3) local_unnamed_addr #0 align 2 personality ptr @__gxx_personality_v0 {
  %5 = load i64, ptr %3, align 8, !tbaa !155
  %6 = icmp eq i64 %5, 4
  switch i32 %1, label %75 [
    i32 4, label %7
    i32 9, label %28
  ]

7:                                                ; preds = %4
  br i1 %6, label %8, label %75

8:                                                ; preds = %7
  %9 = tail call i32 @pthread_mutex_lock(ptr noundef nonnull align 8 dereferenceable(44) %0) #25
  %.not.i.i = icmp eq i32 %9, 0
  br i1 %.not.i.i, label %_ZN3zmq13scoped_lock_tC2ERNS_7mutex_tE.exit, label %10, !prof !93

10:                                               ; preds = %8
  %11 = tail call ptr @strerror(i32 noundef %9) #25
  %12 = load ptr, ptr @stderr, align 8, !tbaa !94
  %13 = tail call i32 (ptr, ptr, ...) @fprintf(ptr noundef %12, ptr noundef nonnull @.str.4, ptr noundef %11, ptr noundef nonnull @.str.10, i32 noundef 109) #27
  %14 = load ptr, ptr @stderr, align 8, !tbaa !94
  %15 = tail call i32 @fflush(ptr noundef %14)
  tail call void @_ZN3zmq9zmq_abortEPKc(ptr noundef %11)
  br label %_ZN3zmq13scoped_lock_tC2ERNS_7mutex_tE.exit

_ZN3zmq13scoped_lock_tC2ERNS_7mutex_tE.exit:      ; preds = %8, %10
  %16 = getelementptr inbounds nuw i8, ptr %0, i64 52
  %17 = load i32, ptr %16, align 4, !tbaa !23
  store i32 %17, ptr %2, align 4, !tbaa !124
  %18 = tail call i32 @pthread_mutex_unlock(ptr noundef nonnull align 8 dereferenceable(44) %0) #25
  %.not.i.i11 = icmp eq i32 %18, 0
  br i1 %.not.i.i11, label %_ZN3zmq13scoped_lock_tD2Ev.exit, label %19, !prof !93

19:                                               ; preds = %_ZN3zmq13scoped_lock_tC2ERNS_7mutex_tE.exit
  %20 = tail call ptr @strerror(i32 noundef %18) #25
  %21 = load ptr, ptr @stderr, align 8, !tbaa !94
  %22 = tail call i32 (ptr, ptr, ...) @fprintf(ptr noundef %21, ptr noundef nonnull @.str.4, ptr noundef %20, ptr noundef nonnull @.str.10, i32 noundef 125) #27
  %23 = load ptr, ptr @stderr, align 8, !tbaa !94
  %24 = tail call i32 @fflush(ptr noundef %23)
  invoke void @_ZN3zmq9zmq_abortEPKc(ptr noundef %20)
          to label %_ZN3zmq13scoped_lock_tD2Ev.exit unwind label %25

25:                                               ; preds = %19
  %26 = landingpad { ptr, i32 }
          catch ptr null
  %27 = extractvalue { ptr, i32 } %26, 0
  tail call void @__clang_call_terminate(ptr %27) #28
  unreachable

28:                                               ; preds = %4
  br i1 %6, label %29, label %51

29:                                               ; preds = %28
  %30 = tail call i32 @pthread_mutex_lock(ptr noundef nonnull align 8 dereferenceable(44) %0) #25
  %.not.i.i12 = icmp eq i32 %30, 0
  br i1 %.not.i.i12, label %_ZN3zmq13scoped_lock_tC2ERNS_7mutex_tE.exit13, label %31, !prof !93

31:                                               ; preds = %29
  %32 = tail call ptr @strerror(i32 noundef %30) #25
  %33 = load ptr, ptr @stderr, align 8, !tbaa !94
  %34 = tail call i32 (ptr, ptr, ...) @fprintf(ptr noundef %33, ptr noundef nonnull @.str.4, ptr noundef %32, ptr noundef nonnull @.str.10, i32 noundef 109) #27
  %35 = load ptr, ptr @stderr, align 8, !tbaa !94
  %36 = tail call i32 @fflush(ptr noundef %35)
  tail call void @_ZN3zmq9zmq_abortEPKc(ptr noundef %32)
  br label %_ZN3zmq13scoped_lock_tC2ERNS_7mutex_tE.exit13

_ZN3zmq13scoped_lock_tC2ERNS_7mutex_tE.exit13:    ; preds = %29, %31
  %37 = getelementptr inbounds nuw i8, ptr %0, i64 104
  %38 = load ptr, ptr %37, align 8, !tbaa !96
  %39 = tail call i64 @strtol(ptr noundef nonnull captures(none) %38, ptr noundef null, i32 noundef 10) #25
  %40 = trunc i64 %39 to i32
  store i32 %40, ptr %2, align 4, !tbaa !124
  %41 = tail call i32 @pthread_mutex_unlock(ptr noundef nonnull align 8 dereferenceable(44) %0) #25
  %.not.i.i14 = icmp eq i32 %41, 0
  br i1 %.not.i.i14, label %_ZN3zmq13scoped_lock_tD2Ev.exit, label %42, !prof !93

42:                                               ; preds = %_ZN3zmq13scoped_lock_tC2ERNS_7mutex_tE.exit13
  %43 = tail call ptr @strerror(i32 noundef %41) #25
  %44 = load ptr, ptr @stderr, align 8, !tbaa !94
  %45 = tail call i32 (ptr, ptr, ...) @fprintf(ptr noundef %44, ptr noundef nonnull @.str.4, ptr noundef %43, ptr noundef nonnull @.str.10, i32 noundef 125) #27
  %46 = load ptr, ptr @stderr, align 8, !tbaa !94
  %47 = tail call i32 @fflush(ptr noundef %46)
  invoke void @_ZN3zmq9zmq_abortEPKc(ptr noundef %43)
          to label %_ZN3zmq13scoped_lock_tD2Ev.exit unwind label %48

48:                                               ; preds = %42
  %49 = landingpad { ptr, i32 }
          catch ptr null
  %50 = extractvalue { ptr, i32 } %49, 0
  tail call void @__clang_call_terminate(ptr %50) #28
  unreachable

51:                                               ; preds = %28
  %52 = getelementptr inbounds nuw i8, ptr %0, i64 104
  %53 = getelementptr inbounds nuw i8, ptr %0, i64 112
  %54 = load i64, ptr %53, align 8, !tbaa !30
  %.not = icmp ult i64 %5, %54
  br i1 %.not, label %75, label %55

55:                                               ; preds = %51
  %56 = tail call i32 @pthread_mutex_lock(ptr noundef nonnull align 8 dereferenceable(44) %0) #25
  %.not.i.i16 = icmp eq i32 %56, 0
  br i1 %.not.i.i16, label %_ZN3zmq13scoped_lock_tC2ERNS_7mutex_tE.exit17, label %57, !prof !93

57:                                               ; preds = %55
  %58 = tail call ptr @strerror(i32 noundef %56) #25
  %59 = load ptr, ptr @stderr, align 8, !tbaa !94
  %60 = tail call i32 (ptr, ptr, ...) @fprintf(ptr noundef %59, ptr noundef nonnull @.str.4, ptr noundef %58, ptr noundef nonnull @.str.10, i32 noundef 109) #27
  %61 = load ptr, ptr @stderr, align 8, !tbaa !94
  %62 = tail call i32 @fflush(ptr noundef %61)
  tail call void @_ZN3zmq9zmq_abortEPKc(ptr noundef %58)
  br label %_ZN3zmq13scoped_lock_tC2ERNS_7mutex_tE.exit17

_ZN3zmq13scoped_lock_tC2ERNS_7mutex_tE.exit17:    ; preds = %55, %57
  %63 = load ptr, ptr %52, align 8, !tbaa !96
  %64 = load i64, ptr %53, align 8, !tbaa !30
  tail call void @llvm.memcpy.p0.p0.i64(ptr align 1 %2, ptr align 1 %63, i64 %64, i1 false)
  %65 = tail call i32 @pthread_mutex_unlock(ptr noundef nonnull align 8 dereferenceable(44) %0) #25
  %.not.i.i18 = icmp eq i32 %65, 0
  br i1 %.not.i.i18, label %_ZN3zmq13scoped_lock_tD2Ev.exit, label %66, !prof !93

66:                                               ; preds = %_ZN3zmq13scoped_lock_tC2ERNS_7mutex_tE.exit17
  %67 = tail call ptr @strerror(i32 noundef %65) #25
  %68 = load ptr, ptr @stderr, align 8, !tbaa !94
  %69 = tail call i32 (ptr, ptr, ...) @fprintf(ptr noundef %68, ptr noundef nonnull @.str.4, ptr noundef %67, ptr noundef nonnull @.str.10, i32 noundef 125) #27
  %70 = load ptr, ptr @stderr, align 8, !tbaa !94
  %71 = tail call i32 @fflush(ptr noundef %70)
  invoke void @_ZN3zmq9zmq_abortEPKc(ptr noundef %67)
          to label %_ZN3zmq13scoped_lock_tD2Ev.exit unwind label %72

72:                                               ; preds = %66
  %73 = landingpad { ptr, i32 }
          catch ptr null
  %74 = extractvalue { ptr, i32 } %73, 0
  tail call void @__clang_call_terminate(ptr %74) #28
  unreachable

75:                                               ; preds = %51, %7, %4
  %76 = tail call ptr @__errno_location() #30
  store i32 22, ptr %76, align 4, !tbaa !124
  br label %_ZN3zmq13scoped_lock_tD2Ev.exit

_ZN3zmq13scoped_lock_tD2Ev.exit:                  ; preds = %66, %_ZN3zmq13scoped_lock_tC2ERNS_7mutex_tE.exit17, %42, %_ZN3zmq13scoped_lock_tC2ERNS_7mutex_tE.exit13, %19, %_ZN3zmq13scoped_lock_tC2ERNS_7mutex_tE.exit, %75
  %.0 = phi i32 [ -1, %75 ], [ 0, %_ZN3zmq13scoped_lock_tC2ERNS_7mutex_tE.exit ], [ 0, %19 ], [ 0, %_ZN3zmq13scoped_lock_tC2ERNS_7mutex_tE.exit13 ], [ 0, %42 ], [ 0, %_ZN3zmq13scoped_lock_tC2ERNS_7mutex_tE.exit17 ], [ 0, %66 ]
  ret i32 %.0
}